

HI-TECH Software PIC LITE Macro Assembler V1.00 build 12136 
                                                                                               Wed Jun 27 12:55:12 2012

HI-TECH Software Omniscient Code Generator (Lite mode) build 12136
     1  0000                     opt subtitle "HI-TECH Software Omniscient Code Generator (Lite mode) build 12136"
     2                           
     3                           opt pagewidth 120
     4                           
     5                           	opt lm
     6                           
     7                           	processor	16F876A
     8                           clrc	macro
     9                           	bcf	3,0
    10  0000                     	endm
    11                           clrz	macro
    12                           	bcf	3,2
    13  0000                     	endm
    14                           setc	macro
    15                           	bsf	3,0
    16  0000                     	endm
    17                           setz	macro
    18                           	bsf	3,2
    19  0000                     	endm
    20                           skipc	macro
    21                           	btfss	3,0
    22  0000                     	endm
    23                           skipz	macro
    24                           	btfss	3,2
    25  0000                     	endm
    26                           skipnc	macro
    27                           	btfsc	3,0
    28  0000                     	endm
    29                           skipnz	macro
    30                           	btfsc	3,2
    31  0000                     	endm
    32  0000                     indf	equ	0
    33  0000                     indf0	equ	0
    34  0002                     pc	equ	2
    35  0002                     pcl	equ	2
    36  0003                     status	equ	3
    37  0004                     fsr	equ	4
    38  0004                     fsr0	equ	4
    39  0001                     c	equ	1
    40  0000                     z	equ	0
    41  000A                     pclath	equ	10
    42                           # 19 "PR13.c"
    43                           psect config,class=CONFIG,delta=2 ;# 
    44                           # 19 "PR13.c"
    45  2007  3F32               dw 0x3F32 ;# 
    46                           	FNCALL	_main,_delay
    47                           	FNROOT	_main
    48                           	global	_RA0
    49  0028                     _RA0	set	0x28
    50                           	global	_RB0
    51  0030                     _RB0	set	0x30
    52                           	global	_RB1
    53  0031                     _RB1	set	0x31
    54                           	global	_RB2
    55  0032                     _RB2	set	0x32
    56                           	global	_RC0
    57  0038                     _RC0	set	0x38
    58                           	global	_RC1
    59  0039                     _RC1	set	0x39
    60                           	global	_RC2
    61  003A                     _RC2	set	0x3A
    62                           	global	_RC3
    63  003B                     _RC3	set	0x3B
    64                           	global	_ADCON1
    65  009F                     _ADCON1	set	0x9F
    66                           	global	_TRISA
    67  0085                     _TRISA	set	0x85
    68                           	global	_TRISB
    69  0086                     _TRISB	set	0x86
    70                           	global	_TRISC
    71  0087                     _TRISC	set	0x87
    72                           psect	maintext,global,class=CODE,delta=2,split=1
    73                           global __pmaintext
    74  0736                     __pmaintext:
    75                           	file	"C:\Users\HATAKE~1\AppData\Local\Temp\s1guc."
    76                           	line	#
    77                           psect cinit,class=CODE,delta=2
    78                           global start_initialization
    79  0702                     start_initialization:
    80                           
    81                           psect cinit,class=CODE,delta=2,merge=1
    82                           global end_of_initialization
    83                           
    84                           ;End of C runtime variable initialization code
    85                           
    86  0702                     end_of_initialization:
    87  0702  0183               clrf status
    88  0703  120A  118A  2F36   ljmp _main	;jump to C main() function
    89                           psect	cstackCOMMON,class=COMMON,space=1
    90                           global __pcstackCOMMON
    91  0070                     __pcstackCOMMON:
    92                           	global	?_delay
    93  0070                     ?_delay:	; 0 bytes @ 0x0
    94                           	global	?_main
    95  0070                     ?_main:	; 0 bytes @ 0x0
    96                           	global	delay@data
    97  0070                     delay@data:	; 4 bytes @ 0x0
    98  0070                     	ds	4
    99                           	global	??_delay
   100  0074                     ??_delay:	; 0 bytes @ 0x4
   101  0074                     	ds	4
   102                           	global	??_main
   103  0078                     ??_main:	; 0 bytes @ 0x8
   104  0078                     	ds	1
   105                           	global	main@mode
   106  0079                     main@mode:	; 1 bytes @ 0x9
   107  0079                     	ds	1
   108                           ;!
   109                           ;!Data Sizes:
   110                           ;!    Strings     0
   111                           ;!    Constant    0
   112                           ;!    Data        0
   113                           ;!    BSS         0
   114                           ;!    Persistent  0
   115                           ;!    Stack       0
   116                           ;!
   117                           ;!Auto Spaces:
   118                           ;!    Space          Size  Autos    Used
   119                           ;!    COMMON           14     10      10
   120                           ;!    BANK0            80      0       0
   121                           ;!    BANK1            80      0       0
   122                           ;!    BANK3            96      0       0
   123                           ;!    BANK2            96      0       0
   124                           
   125                           ;!
   126                           ;!Pointer List with Targets:
   127                           ;!
   128                           ;!    None.
   129                           
   130                           
   131                           ;!
   132                           ;!Critical Paths under _main in COMMON
   133                           ;!
   134                           ;!    _main->_delay
   135                           ;!
   136                           ;!Critical Paths under _main in BANK0
   137                           ;!
   138                           ;!    None.
   139                           ;!
   140                           ;!Critical Paths under _main in BANK1
   141                           ;!
   142                           ;!    None.
   143                           ;!
   144                           ;!Critical Paths under _main in BANK3
   145                           ;!
   146                           ;!    None.
   147                           ;!
   148                           ;!Critical Paths under _main in BANK2
   149                           ;!
   150                           ;!    None.
   151                           
   152 ;;
   153 ;;Main: autosize = 0, tempsize = 1, incstack = 0, save=0
   154 ;;
   155                           
   156                           ;!
   157                           ;!Call Graph Tables:
   158                           ;!
   159                           ;! ---------------------------------------------------------------------------------
   160                           ;! (Depth) Function   	        Calls       Base Space   Used Autos Params    Refs
   161                           ;! ---------------------------------------------------------------------------------
   162                           ;! (0) _main                                                 2     2      0      75
   163                           ;!                                              8 COMMON     2     2      0
   164                           ;!                              _delay
   165                           ;! ---------------------------------------------------------------------------------
   166                           ;! (1) _delay                                                8     4      4      30
   167                           ;!                                              0 COMMON     8     4      4
   168                           ;! ---------------------------------------------------------------------------------
   169                           ;! Estimated maximum stack depth 1
   170                           ;! ---------------------------------------------------------------------------------
   171                           ;!
   172                           ;! Call Graph Graphs:
   173                           ;!
   174                           ;! _main (ROOT)
   175                           ;!   _delay
   176                           ;!
   177                           
   178                           ;! Address spaces:
   179                           
   180                           ;!Name               Size   Autos  Total    Cost      Usage
   181                           ;!BITCOMMON            E      0       0       0        0.0%
   182                           ;!EEDATA             100      0       0       0        0.0%
   183                           ;!NULL                 0      0       0       0        0.0%
   184                           ;!CODE                 0      0       0       0        0.0%
   185                           ;!COMMON               E      A       A       1       71.4%
   186                           ;!BITSFR0              0      0       0       1        0.0%
   187                           ;!SFR0                 0      0       0       1        0.0%
   188                           ;!BITSFR1              0      0       0       2        0.0%
   189                           ;!SFR1                 0      0       0       2        0.0%
   190                           ;!STACK                0      0       1       2        0.0%
   191                           ;!ABS                  0      0       0       3        0.0%
   192                           ;!BITBANK0            50      0       0       4        0.0%
   193                           ;!BITSFR3              0      0       0       4        0.0%
   194                           ;!SFR3                 0      0       0       4        0.0%
   195                           ;!BANK0               50      0       0       5        0.0%
   196                           ;!BITSFR2              0      0       0       5        0.0%
   197                           ;!SFR2                 0      0       0       5        0.0%
   198                           ;!BITBANK1            50      0       0       6        0.0%
   199                           ;!BANK1               50      0       0       7        0.0%
   200                           ;!BITBANK3            60      0       0       8        0.0%
   201                           ;!BANK3               60      0       0       9        0.0%
   202                           ;!BITBANK2            60      0       0      10        0.0%
   203                           ;!BANK2               60      0       0      11        0.0%
   204                           ;!DATA                 0      0       0      12        0.0%
   205                           
   206                           	global	_main
   207                           
   208 ;; *************** function _main *****************
   209 ;; Defined at:
   210 ;;		line 53 in file "PR13.c"
   211 ;; Parameters:    Size  Location     Type
   212 ;;		None
   213 ;; Auto vars:     Size  Location     Type
   214 ;;  mode            1    9[COMMON] unsigned char 
   215 ;; Return value:  Size  Location     Type
   216 ;;		None               void
   217 ;; Registers used:
   218 ;;		wreg, status,2, status,0, pclath, cstack
   219 ;; Tracked objects:
   220 ;;		On entry : 17F/0
   221 ;;		On exit  : 0/0
   222 ;;		Unchanged: 0/0
   223 ;; Data sizes:     COMMON   BANK0   BANK1   BANK3   BANK2
   224 ;;      Params:         0       0       0       0       0
   225 ;;      Locals:         1       0       0       0       0
   226 ;;      Temps:          1       0       0       0       0
   227 ;;      Totals:         2       0       0       0       0
   228 ;;Total ram usage:        2 bytes
   229 ;; Hardware stack levels required when called:    1
   230 ;; This function calls:
   231 ;;		_delay
   232 ;; This function is called by:
   233 ;;		Startup code after reset
   234 ;; This function uses a non-reentrant model
   235 ;;
   236                           psect	maintext
   237                           psect	maintext
   238                           	file	"PR13.c"
   239                           	line	53
   240                           	global	__size_of_main
   241  00CA                     	__size_of_main	equ	__end_of_main-_main
   242                           	
   243  0736                     _main:	
   244                           	opt	stack 7
   245                           ; Regs used in _main: [wreg+status,2+status,0+pclath+cstack]
   246                           	line	55
   247                           	
   248  0736                     l520:	
   249                           ;PR13.c: 55: unsigned char mode=0;
   250  0736  01F9               	clrf	(main@mode)
   251                           	line	58
   252                           	
   253  0737                     l522:	
   254                           ;PR13.c: 58: TRISB = 0b11111111;
   255  0737  30FF               	movlw	(0FFh)
   256  0738  1683               	bsf	status, 5	;RP0=1, select bank1
   257  0739  1303               	bcf	status, 6	;RP1=0, select bank1
   258  073A  0086               	movwf	(134)^080h	;volatile
   259                           	line	59
   260                           	
   261  073B                     l524:	
   262                           ;PR13.c: 59: TRISC = 0b00000000;
   263  073B  0187               	clrf	(135)^080h	;volatile
   264                           	line	60
   265                           	
   266  073C                     l526:	
   267                           ;PR13.c: 60: TRISA = 0b11111111;
   268  073C  30FF               	movlw	(0FFh)
   269  073D  0085               	movwf	(133)^080h	;volatile
   270                           	line	63
   271                           	
   272  073E                     l528:	
   273                           ;PR13.c: 63: ADCON1 = 0b00000110;
   274  073E  3006               	movlw	(06h)
   275  073F  009F               	movwf	(159)^080h	;volatile
   276                           	line	66
   277                           	
   278  0740                     l530:	
   279                           ;PR13.c: 66: RC0=0;
   280  0740  1283               	bcf	status, 5	;RP0=0, select bank0
   281  0741  1303               	bcf	status, 6	;RP1=0, select bank0
   282  0742  1007               	bcf	(56/8),(56)&7	;volatile
   283                           	line	67
   284                           	
   285  0743                     l532:	
   286                           ;PR13.c: 67: mode=0;
   287  0743  01F9               	clrf	(main@mode)
   288                           	line	68
   289                           	
   290  0744                     l534:	
   291                           ;PR13.c: 68: RC1=0;
   292  0744  1087               	bcf	(57/8),(57)&7	;volatile
   293                           	line	69
   294                           	
   295  0745                     l536:	
   296                           ;PR13.c: 69: RC2=0;
   297  0745  1107               	bcf	(58/8),(58)&7	;volatile
   298                           	line	70
   299                           	
   300  0746                     l538:	
   301                           ;PR13.c: 70: RC3=0;
   302  0746  1187               	bcf	(59/8),(59)&7	;volatile
   303  0747  2F48               	goto	l540
   304                           	line	73
   305                           ;PR13.c: 73: while(1)
   306                           	
   307  0748                     l29:	
   308                           	line	75
   309                           	
   310  0748                     l540:	
   311                           ;PR13.c: 74: {
   312                           ;PR13.c: 75: if(RB0==0)
   313  0748  1283               	bcf	status, 5	;RP0=0, select bank0
   314  0749  1303               	bcf	status, 6	;RP1=0, select bank0
   315  074A  1806               	btfsc	(48/8),(48)&7	;volatile
   316  074B  2F4D               	goto	u41
   317  074C  2F4E               	goto	u40
   318  074D                     u41:
   319  074D  2F55               	goto	l30
   320  074E                     u40:
   321                           	line	77
   322                           	
   323  074E                     l542:	
   324                           ;PR13.c: 76: {
   325                           ;PR13.c: 77: mode=1;
   326  074E  01F9               	clrf	(main@mode)
   327  074F  1403               	bsf	status,0
   328  0750  0DF9               	rlf	(main@mode),f
   329                           	line	78
   330                           	
   331  0751                     l544:	
   332                           ;PR13.c: 78: RC1=1;
   333  0751  1487               	bsf	(57/8),(57)&7	;volatile
   334                           	line	79
   335                           	
   336  0752                     l546:	
   337                           ;PR13.c: 79: RC2=0;
   338  0752  1107               	bcf	(58/8),(58)&7	;volatile
   339                           	line	80
   340                           	
   341  0753                     l548:	
   342                           ;PR13.c: 80: RC3=0;
   343  0753  1187               	bcf	(59/8),(59)&7	;volatile
   344                           	line	81
   345                           ;PR13.c: 81: }
   346  0754  2F6F               	goto	l566
   347                           	line	82
   348                           	
   349  0755                     l30:	
   350                           ;PR13.c: 82: else if(RB1==0)
   351  0755  1886               	btfsc	(49/8),(49)&7	;volatile
   352  0756  2F58               	goto	u51
   353  0757  2F59               	goto	u50
   354  0758                     u51:
   355  0758  2F61               	goto	l32
   356  0759                     u50:
   357                           	line	84
   358                           	
   359  0759                     l550:	
   360                           ;PR13.c: 83: {
   361                           ;PR13.c: 84: mode=2;
   362  0759  3002               	movlw	(02h)
   363  075A  00F8               	movwf	(??_main+0)+0
   364  075B  0878               	movf	(??_main+0)+0,w
   365  075C  00F9               	movwf	(main@mode)
   366                           	line	85
   367                           	
   368  075D                     l552:	
   369                           ;PR13.c: 85: RC1=0;
   370  075D  1087               	bcf	(57/8),(57)&7	;volatile
   371                           	line	86
   372                           	
   373  075E                     l554:	
   374                           ;PR13.c: 86: RC2=1;
   375  075E  1507               	bsf	(58/8),(58)&7	;volatile
   376                           	line	87
   377                           	
   378  075F                     l556:	
   379                           ;PR13.c: 87: RC3=0;
   380  075F  1187               	bcf	(59/8),(59)&7	;volatile
   381                           	line	88
   382                           ;PR13.c: 88: }
   383  0760  2F6F               	goto	l566
   384                           	line	89
   385                           	
   386  0761                     l32:	
   387                           ;PR13.c: 89: else if(RB2==0)
   388  0761  1906               	btfsc	(50/8),(50)&7	;volatile
   389  0762  2F64               	goto	u61
   390  0763  2F65               	goto	u60
   391  0764                     u61:
   392  0764  2F6F               	goto	l566
   393  0765                     u60:
   394                           	line	91
   395                           	
   396  0765                     l558:	
   397                           ;PR13.c: 90: {
   398                           ;PR13.c: 91: mode=3;
   399  0765  3003               	movlw	(03h)
   400  0766  00F8               	movwf	(??_main+0)+0
   401  0767  0878               	movf	(??_main+0)+0,w
   402  0768  00F9               	movwf	(main@mode)
   403                           	line	92
   404                           	
   405  0769                     l560:	
   406                           ;PR13.c: 92: RC1=0;
   407  0769  1087               	bcf	(57/8),(57)&7	;volatile
   408                           	line	93
   409                           	
   410  076A                     l562:	
   411                           ;PR13.c: 93: RC2=0;
   412  076A  1107               	bcf	(58/8),(58)&7	;volatile
   413                           	line	94
   414                           	
   415  076B                     l564:	
   416                           ;PR13.c: 94: RC3=1;
   417  076B  1587               	bsf	(59/8),(59)&7	;volatile
   418  076C  2F6F               	goto	l566
   419                           	line	95
   420                           	
   421  076D                     l34:	
   422  076D  2F6F               	goto	l566
   423                           	line	97
   424                           	
   425  076E                     l33:	
   426  076E  2F6F               	goto	l566
   427                           	
   428  076F                     l31:	
   429                           	
   430  076F                     l566:	
   431                           ;PR13.c: 95: }
   432                           ;PR13.c: 97: if(RA0)
   433  076F  1C05               	btfss	(40/8),(40)&7	;volatile
   434  0770  2F72               	goto	u71
   435  0771  2F73               	goto	u70
   436  0772                     u71:
   437  0772  2F48               	goto	l540
   438  0773                     u70:
   439                           	line	99
   440                           	
   441  0773                     l568:	
   442                           ;PR13.c: 98: {
   443                           ;PR13.c: 99: if(mode==1)
   444  0773  0879               	movf	(main@mode),w
   445  0774  3A01               	xorlw	01h
   446  0775  1D03               	skipz
   447  0776  2F78               	goto	u81
   448  0777  2F79               	goto	u80
   449  0778                     u81:
   450  0778  2FA0               	goto	l578
   451  0779                     u80:
   452                           	line	101
   453                           ;PR13.c: 100: {
   454                           ;PR13.c: 101: while(1)
   455                           	
   456  0779                     l37:	
   457                           	line	103
   458                           ;PR13.c: 102: {
   459                           ;PR13.c: 103: RC1=1;
   460  0779  1283               	bcf	status, 5	;RP0=0, select bank0
   461  077A  1303               	bcf	status, 6	;RP1=0, select bank0
   462  077B  1487               	bsf	(57/8),(57)&7	;volatile
   463                           	line	104
   464                           ;PR13.c: 104: RC2=1;
   465  077C  1507               	bsf	(58/8),(58)&7	;volatile
   466                           	line	105
   467                           ;PR13.c: 105: RC3=1;
   468  077D  1587               	bsf	(59/8),(59)&7	;volatile
   469                           	line	106
   470                           	
   471  077E                     l570:	
   472                           ;PR13.c: 106: delay(50000);
   473  077E  3000               	movlw	0
   474  077F  00F3               	movwf	(?_delay+3)
   475  0780  3000               	movlw	0
   476  0781  00F2               	movwf	(?_delay+2)
   477  0782  30C3               	movlw	0C3h
   478  0783  00F1               	movwf	(?_delay+1)
   479  0784  3050               	movlw	050h
   480  0785  00F0               	movwf	(?_delay)
   481                           
   482  0786  120A  118A  2706   	fcall	_delay
              120A  118A         
   483                           	line	107
   484                           	
   485  078B                     l572:	
   486                           ;PR13.c: 107: RC1=0;
   487  078B  1283               	bcf	status, 5	;RP0=0, select bank0
   488  078C  1303               	bcf	status, 6	;RP1=0, select bank0
   489  078D  1087               	bcf	(57/8),(57)&7	;volatile
   490                           	line	108
   491                           	
   492  078E                     l574:	
   493                           ;PR13.c: 108: RC2=0;
   494  078E  1107               	bcf	(58/8),(58)&7	;volatile
   495                           	line	109
   496                           	
   497  078F                     l576:	
   498                           ;PR13.c: 109: RC3=0;
   499  078F  1187               	bcf	(59/8),(59)&7	;volatile
   500                           	line	110
   501                           ;PR13.c: 110: delay(50000);
   502  0790  3000               	movlw	0
   503  0791  00F3               	movwf	(?_delay+3)
   504  0792  3000               	movlw	0
   505  0793  00F2               	movwf	(?_delay+2)
   506  0794  30C3               	movlw	0C3h
   507  0795  00F1               	movwf	(?_delay+1)
   508  0796  3050               	movlw	050h
   509  0797  00F0               	movwf	(?_delay)
   510                           
   511  0798  120A  118A  2706   	fcall	_delay
              120A  118A         
   512  079D  2F79               	goto	l37
   513                           	line	111
   514                           	
   515  079E                     l38:	
   516                           	line	101
   517  079E  2F79               	goto	l37
   518                           	
   519  079F                     l39:	
   520                           	line	112
   521                           ;PR13.c: 111: }
   522                           ;PR13.c: 112: }
   523  079F  2F48               	goto	l540
   524                           	line	113
   525                           	
   526  07A0                     l36:	
   527                           	
   528  07A0                     l578:	
   529                           ;PR13.c: 113: else if(mode==2)
   530  07A0  0879               	movf	(main@mode),w
   531  07A1  3A02               	xorlw	02h
   532  07A2  1D03               	skipz
   533  07A3  2FA5               	goto	u91
   534  07A4  2FA6               	goto	u90
   535  07A5                     u91:
   536  07A5  2FC9               	goto	l584
   537  07A6                     u90:
   538                           	line	115
   539                           ;PR13.c: 114: {
   540                           ;PR13.c: 115: while(1)
   541                           	
   542  07A6                     l42:	
   543                           	line	117
   544                           ;PR13.c: 116: {
   545                           ;PR13.c: 117: RC0=1;
   546  07A6  1283               	bcf	status, 5	;RP0=0, select bank0
   547  07A7  1303               	bcf	status, 6	;RP1=0, select bank0
   548  07A8  1407               	bsf	(56/8),(56)&7	;volatile
   549                           	line	118
   550                           	
   551  07A9                     l580:	
   552                           ;PR13.c: 118: delay(50000);
   553  07A9  3000               	movlw	0
   554  07AA  00F3               	movwf	(?_delay+3)
   555  07AB  3000               	movlw	0
   556  07AC  00F2               	movwf	(?_delay+2)
   557  07AD  30C3               	movlw	0C3h
   558  07AE  00F1               	movwf	(?_delay+1)
   559  07AF  3050               	movlw	050h
   560  07B0  00F0               	movwf	(?_delay)
   561                           
   562  07B1  120A  118A  2706   	fcall	_delay
              120A  118A         
   563                           	line	119
   564                           	
   565  07B6                     l582:	
   566                           ;PR13.c: 119: RC0=0;
   567  07B6  1283               	bcf	status, 5	;RP0=0, select bank0
   568  07B7  1303               	bcf	status, 6	;RP1=0, select bank0
   569  07B8  1007               	bcf	(56/8),(56)&7	;volatile
   570                           	line	120
   571                           ;PR13.c: 120: delay(50000);
   572  07B9  3000               	movlw	0
   573  07BA  00F3               	movwf	(?_delay+3)
   574  07BB  3000               	movlw	0
   575  07BC  00F2               	movwf	(?_delay+2)
   576  07BD  30C3               	movlw	0C3h
   577  07BE  00F1               	movwf	(?_delay+1)
   578  07BF  3050               	movlw	050h
   579  07C0  00F0               	movwf	(?_delay)
   580                           
   581  07C1  120A  118A  2706   	fcall	_delay
              120A  118A         
   582  07C6  2FA6               	goto	l42
   583                           	line	121
   584                           	
   585  07C7                     l43:	
   586                           	line	115
   587  07C7  2FA6               	goto	l42
   588                           	
   589  07C8                     l44:	
   590                           	line	122
   591                           ;PR13.c: 121: }
   592                           ;PR13.c: 122: }
   593  07C8  2F48               	goto	l540
   594                           	line	123
   595                           	
   596  07C9                     l41:	
   597                           	
   598  07C9                     l584:	
   599                           ;PR13.c: 123: else if(mode==3)
   600  07C9  0879               	movf	(main@mode),w
   601  07CA  3A03               	xorlw	03h
   602  07CB  1D03               	skipz
   603  07CC  2FCE               	goto	u101
   604  07CD  2FCF               	goto	u100
   605  07CE                     u101:
   606  07CE  2F48               	goto	l540
   607  07CF                     u100:
   608                           	line	125
   609                           ;PR13.c: 124: {
   610                           ;PR13.c: 125: while(1)
   611                           	
   612  07CF                     l47:	
   613                           	line	127
   614                           ;PR13.c: 126: {
   615                           ;PR13.c: 127: RC1=1;
   616  07CF  1283               	bcf	status, 5	;RP0=0, select bank0
   617  07D0  1303               	bcf	status, 6	;RP1=0, select bank0
   618  07D1  1487               	bsf	(57/8),(57)&7	;volatile
   619                           	line	128
   620                           ;PR13.c: 128: RC2=1;
   621  07D2  1507               	bsf	(58/8),(58)&7	;volatile
   622                           	line	129
   623                           ;PR13.c: 129: RC3=1;
   624  07D3  1587               	bsf	(59/8),(59)&7	;volatile
   625                           	line	130
   626                           ;PR13.c: 130: RC0=1;
   627  07D4  1407               	bsf	(56/8),(56)&7	;volatile
   628                           	line	131
   629                           	
   630  07D5                     l586:	
   631                           ;PR13.c: 131: delay(50000);
   632  07D5  3000               	movlw	0
   633  07D6  00F3               	movwf	(?_delay+3)
   634  07D7  3000               	movlw	0
   635  07D8  00F2               	movwf	(?_delay+2)
   636  07D9  30C3               	movlw	0C3h
   637  07DA  00F1               	movwf	(?_delay+1)
   638  07DB  3050               	movlw	050h
   639  07DC  00F0               	movwf	(?_delay)
   640                           
   641  07DD  120A  118A  2706   	fcall	_delay
              120A  118A         
   642                           	line	132
   643                           	
   644  07E2                     l588:	
   645                           ;PR13.c: 132: RC1=0;
   646  07E2  1283               	bcf	status, 5	;RP0=0, select bank0
   647  07E3  1303               	bcf	status, 6	;RP1=0, select bank0
   648  07E4  1087               	bcf	(57/8),(57)&7	;volatile
   649                           	line	133
   650                           	
   651  07E5                     l590:	
   652                           ;PR13.c: 133: RC2=0;
   653  07E5  1107               	bcf	(58/8),(58)&7	;volatile
   654                           	line	134
   655                           	
   656  07E6                     l592:	
   657                           ;PR13.c: 134: RC3=0;
   658  07E6  1187               	bcf	(59/8),(59)&7	;volatile
   659                           	line	135
   660                           	
   661  07E7                     l594:	
   662                           ;PR13.c: 135: RC0=0;
   663  07E7  1007               	bcf	(56/8),(56)&7	;volatile
   664                           	line	136
   665                           ;PR13.c: 136: delay(50000);
   666  07E8  3000               	movlw	0
   667  07E9  00F3               	movwf	(?_delay+3)
   668  07EA  3000               	movlw	0
   669  07EB  00F2               	movwf	(?_delay+2)
   670  07EC  30C3               	movlw	0C3h
   671  07ED  00F1               	movwf	(?_delay+1)
   672  07EE  3050               	movlw	050h
   673  07EF  00F0               	movwf	(?_delay)
   674                           
   675  07F0  120A  118A  2706   	fcall	_delay
              120A  118A         
   676  07F5  2FCF               	goto	l47
   677                           	line	137
   678                           	
   679  07F6                     l48:	
   680                           	line	125
   681  07F6  2FCF               	goto	l47
   682                           	
   683  07F7                     l49:	
   684  07F7  2F48               	goto	l540
   685                           	line	138
   686                           	
   687  07F8                     l46:	
   688  07F8  2F48               	goto	l540
   689                           	line	139
   690                           	
   691  07F9                     l45:	
   692  07F9  2F48               	goto	l540
   693                           	
   694  07FA                     l40:	
   695  07FA  2F48               	goto	l540
   696                           	
   697  07FB                     l35:	
   698  07FB  2F48               	goto	l540
   699                           	line	140
   700                           	
   701  07FC                     l50:	
   702                           	line	73
   703  07FC  2F48               	goto	l540
   704                           	
   705  07FD                     l51:	
   706                           	line	141
   707                           	
   708  07FD                     l52:	
   709                           	global	start
   710  07FD  120A  118A  2800   	ljmp	start
   711                           	opt stack 0
   712                           GLOBAL	__end_of_main
   713  0800                     	__end_of_main:
   714                           	signat	_main,88
   715                           	global	_delay
   716                           
   717 ;; *************** function _delay *****************
   718 ;; Defined at:
   719 ;;		line 148 in file "PR13.c"
   720 ;; Parameters:    Size  Location     Type
   721 ;;  data            4    0[COMMON] unsigned long 
   722 ;; Auto vars:     Size  Location     Type
   723 ;;		None
   724 ;; Return value:  Size  Location     Type
   725 ;;		None               void
   726 ;; Registers used:
   727 ;;		wreg
   728 ;; Tracked objects:
   729 ;;		On entry : 0/0
   730 ;;		On exit  : 0/0
   731 ;;		Unchanged: 0/0
   732 ;; Data sizes:     COMMON   BANK0   BANK1   BANK3   BANK2
   733 ;;      Params:         4       0       0       0       0
   734 ;;      Locals:         0       0       0       0       0
   735 ;;      Temps:          4       0       0       0       0
   736 ;;      Totals:         8       0       0       0       0
   737 ;;Total ram usage:        8 bytes
   738 ;; Hardware stack levels used:    1
   739 ;; This function calls:
   740 ;;		Nothing
   741 ;; This function is called by:
   742 ;;		_main
   743 ;; This function uses a non-reentrant model
   744 ;;
   745                           psect	text19,local,class=CODE,delta=2,merge=1
   746                           global __ptext19
   747  0706                     __ptext19:
   748                           psect	text19
   749                           	file	"PR13.c"
   750                           	line	148
   751                           	global	__size_of_delay
   752  0030                     	__size_of_delay	equ	__end_of_delay-_delay
   753                           	
   754  0706                     _delay:	
   755                           	opt	stack 7
   756                           ; Regs used in _delay: [wreg]
   757                           	line	149
   758                           	
   759  0706                     l514:	
   760                           ;PR13.c: 149: for( ;data>0;data-=1);
   761  0706  0873               	movf	(delay@data+3),w
   762  0707  0472               	iorwf	(delay@data+2),w
   763  0708  0471               	iorwf	(delay@data+1),w
   764  0709  0470               	iorwf	(delay@data),w
   765  070A  1D03               	skipz
   766  070B  2F0D               	goto	u11
   767  070C  2F0E               	goto	u10
   768  070D                     u11:
   769  070D  2F10               	goto	l518
   770  070E                     u10:
   771  070E  2F35               	goto	l57
   772                           	
   773  070F                     l516:	
   774  070F  2F35               	goto	l57
   775                           	
   776  0710                     l55:	
   777                           	
   778  0710                     l518:	
   779  0710  3001               	movlw	01h
   780  0711  00F4               	movwf	((??_delay+0)+0)
   781  0712  3000               	movlw	0
   782  0713  00F5               	movwf	((??_delay+0)+0+1)
   783  0714  3000               	movlw	0
   784  0715  00F6               	movwf	((??_delay+0)+0+2)
   785  0716  3000               	movlw	0
   786  0717  00F7               	movwf	((??_delay+0)+0+3)
   787  0718  0874               	movf	0+(??_delay+0)+0,w
   788  0719  02F0               	subwf	(delay@data),f
   789  071A  0875               	movf	1+(??_delay+0)+0,w
   790  071B  1C03               	skipc
   791  071C  0F75               	incfsz	1+(??_delay+0)+0,w
   792  071D  2F1F               	goto	u25
   793  071E  2F20               	goto	u26
   794  071F                     u25:
   795  071F  02F1               	subwf	(delay@data+1),f
   796  0720                     u26:
   797  0720  0876               	movf	2+(??_delay+0)+0,w
   798  0721  1C03               	skipc
   799  0722  0F76               	incfsz	2+(??_delay+0)+0,w
   800  0723  2F25               	goto	u27
   801  0724  2F26               	goto	u28
   802  0725                     u27:
   803  0725  02F2               	subwf	(delay@data+2),f
   804  0726                     u28:
   805  0726  0877               	movf	3+(??_delay+0)+0,w
   806  0727  1C03               	skipc
   807  0728  0F77               	incfsz	3+(??_delay+0)+0,w
   808  0729  2F2B               	goto	u29
   809  072A  2F2C               	goto	u20
   810  072B                     u29:
   811  072B  02F3               	subwf	(delay@data+3),f
   812  072C                     u20:
   813                           
   814  072C  0873               	movf	(delay@data+3),w
   815  072D  0472               	iorwf	(delay@data+2),w
   816  072E  0471               	iorwf	(delay@data+1),w
   817  072F  0470               	iorwf	(delay@data),w
   818  0730  1D03               	skipz
   819  0731  2F33               	goto	u31
   820  0732  2F34               	goto	u30
   821  0733                     u31:
   822  0733  2F10               	goto	l518
   823  0734                     u30:
   824  0734  2F35               	goto	l57
   825                           	
   826  0735                     l56:	
   827                           	line	150
   828                           	
   829  0735                     l57:	
   830  0735  0008               	return
   831                           	opt stack 0
   832                           GLOBAL	__end_of_delay
   833  0736                     	__end_of_delay:
   834                           	signat	_delay,4216
   835                           psect	text20,local,class=CODE,delta=2,merge=1
   836                           global __ptext20
   837  0000                     __ptext20:
   838                           	global	btemp
   839  007E                     	btemp set 07Eh
   840                           
   841                           	DABS	1,126,2	;btemp
   842                           	global	wtemp0
   843  007E                     	wtemp0 set btemp


Data Sizes:
    Strings     0
    Constant    0
    Data        0
    BSS         0
    Persistent  0
    Stack       0

Auto Spaces:
    Space          Size  Autos    Used
    COMMON           14     10      10
    BANK0            80      0       0
    BANK1            80      0       0
    BANK3            96      0       0
    BANK2            96      0       0

Pointer List with Targets:

    None.

Critical Paths under _main in COMMON

    _main->_delay

Critical Paths under _main in BANK0

    None.

Critical Paths under _main in BANK1

    None.

Critical Paths under _main in BANK3

    None.

Critical Paths under _main in BANK2

    None.

Call Graph Tables:

 ---------------------------------------------------------------------------------
 (Depth) Function   	        Calls       Base Space   Used Autos Params    Refs
 ---------------------------------------------------------------------------------
 (0) _main                                                 2     2      0      75
                                              8 COMMON     2     2      0
                              _delay
 ---------------------------------------------------------------------------------
 (1) _delay                                                8     4      4      30
                                              0 COMMON     8     4      4
 ---------------------------------------------------------------------------------
 Estimated maximum stack depth 1
 ---------------------------------------------------------------------------------

 Call Graph Graphs:

 _main (ROOT)
   _delay

 Address spaces:
Name               Size   Autos  Total    Cost      Usage
BITCOMMON            E      0       0       0        0.0%
EEDATA             100      0       0       0        0.0%
NULL                 0      0       0       0        0.0%
CODE                 0      0       0       0        0.0%
COMMON               E      A       A       1       71.4%
BITSFR0              0      0       0       1        0.0%
SFR0                 0      0       0       1        0.0%
BITSFR1              0      0       0       2        0.0%
SFR1                 0      0       0       2        0.0%
STACK                0      0       1       2        0.0%
ABS                  0      0       0       3        0.0%
BITBANK0            50      0       0       4        0.0%
BITSFR3              0      0       0       4        0.0%
SFR3                 0      0       0       4        0.0%
BANK0               50      0       0       5        0.0%
BITSFR2              0      0       0       5        0.0%
SFR2                 0      0       0       5        0.0%
BITBANK1            50      0       0       6        0.0%
BANK1               50      0       0       7        0.0%
BITBANK3            60      0       0       8        0.0%
BANK3               60      0       0       9        0.0%
BITBANK2            60      0       0      10        0.0%
BANK2               60      0       0      11        0.0%
DATA                 0      0       0      12        0.0%


HI-TECH Software PICC Macro Assembler V1.00 build 12136 
Symbol Table                                                                                   Wed Jun 27 12:55:12 2012

                  l30 0755                    l31 076F                    l40 07FA                    l32 0761  
                  l41 07C9                    l33 076E                    l50 07FC                    l42 07A6  
                  l34 076D                    l51 07FD                    l35 07FB                    l43 07C7  
                  l52 07FD                    l44 07C8                    l36 07A0                    l45 07F9  
                  l37 0779                    l29 0748                    l46 07F8                    l38 079E  
                  l55 0710                    l47 07CF                    l39 079F                    l56 0735  
                  l48 07F6                    l57 0735                    l49 07F7                    u10 070E  
                  u11 070D                    u20 072C                    u30 0734                    u31 0733  
                  u40 074E                    u25 071F                    u41 074D                    u26 0720  
                  u50 0759                    u27 0725                    u51 0758                    u28 0726  
                  u60 0765                    u29 072B                    u61 0764                    u70 0773  
                  u71 0772                    u80 0779                    u81 0778                    u90 07A6  
                  u91 07A5                   l520 0736                   l514 0706                   l530 0740  
                 l522 0737                   l516 070F                   l540 0748                   l532 0743  
                 l524 073B                   l518 0710                   l550 0759                   l542 074E  
                 l534 0744                   l526 073C                   l560 0769                   l552 075D  
                 l544 0751                   l536 0745                   l528 073E                   l570 077E  
                 l562 076A                   l554 075E                   l546 0752                   l538 0746  
                 l580 07A9                   l572 078B                   l564 076B                   l556 075F  
                 l548 0753                   l590 07E5                   l582 07B6                   l574 078E  
                 l558 0765                   l566 076F                   l592 07E6                   l584 07C9  
                 l576 078F                   l568 0773                   l594 07E7                   l586 07D5  
                 l578 07A0                   l588 07E2                   _RA0 0028                   _RB0 0030  
                 _RB1 0031                   _RC0 0038                   _RB2 0032                   _RC1 0039  
                 _RC2 003A                   _RC3 003B                   u100 07CF                   u101 07CE  
                _main 0736                  btemp 007E                  start 0000                 ?_main 0070  
               _TRISA 0085                 _TRISB 0086                 _TRISC 0087                 _delay 0706  
               status 0003                 wtemp0 007E          __end_of_main 0800                ??_main 0078  
              ?_delay 0070                _ADCON1 009F        __pcstackCOMMON 0070         __end_of_delay 0736  
             ??_delay 0074            __pmaintext 0736  end_of_initialization 0702   start_initialization 0702  
      __size_of_delay 0030             delay@data 0070              __ptext20 0000              __ptext19 0706  
       __size_of_main 00CA              main@mode 0079  
